; ModuleID = '25/1199.cpp'
source_filename = "25/1199.cpp"
target datalayout = "e-m:e-p270:32:32-p271:32:32-p272:64:64-i64:64-f80:128-n8:16:32:64-S128"
target triple = "x86_64-pc-linux-gnu"

%"class.std::ios_base::Init" = type { i8 }
%"class.std::basic_istream" = type { i32 (...)**, i64, %"class.std::basic_ios" }
%"class.std::basic_ios" = type { %"class.std::ios_base", %"class.std::basic_ostream"*, i8, i8, %"class.std::basic_streambuf"*, %"class.std::ctype"*, %"class.std::num_put"*, %"class.std::num_get"* }
%"class.std::ios_base" = type { i32 (...)**, i64, i64, i32, i32, i32, %"struct.std::ios_base::_Callback_list"*, %"struct.std::ios_base::_Words", [8 x %"struct.std::ios_base::_Words"], i32, %"struct.std::ios_base::_Words"*, %"class.std::locale" }
%"struct.std::ios_base::_Callback_list" = type { %"struct.std::ios_base::_Callback_list"*, void (i32, %"class.std::ios_base"*, i32)*, i32, i32 }
%"struct.std::ios_base::_Words" = type { i8*, i64 }
%"class.std::locale" = type { %"class.std::locale::_Impl"* }
%"class.std::locale::_Impl" = type { i32, %"class.std::locale::facet"**, i64, %"class.std::locale::facet"**, i8** }
%"class.std::locale::facet" = type <{ i32 (...)**, i32, [4 x i8] }>
%"class.std::basic_ostream" = type { i32 (...)**, %"class.std::basic_ios" }
%"class.std::basic_streambuf" = type { i32 (...)**, i8*, i8*, i8*, i8*, i8*, i8*, %"class.std::locale" }
%"class.std::ctype" = type <{ %"class.std::locale::facet.base", [4 x i8], %struct.__locale_struct*, i8, [7 x i8], i32*, i32*, i16*, i8, [256 x i8], [256 x i8], i8, [6 x i8] }>
%"class.std::locale::facet.base" = type <{ i32 (...)**, i32 }>
%struct.__locale_struct = type { [13 x %struct.__locale_data*], i16*, i32*, i32*, [13 x i8*] }
%struct.__locale_data = type opaque
%"class.std::num_put" = type { %"class.std::locale::facet.base", [4 x i8] }
%"class.std::num_get" = type { %"class.std::locale::facet.base", [4 x i8] }

@_ZStL8__ioinit = internal global %"class.std::ios_base::Init" zeroinitializer, align 1
@__dso_handle = external hidden global i8
@n = dso_local global i32 0, align 4
@a = dso_local global [1001 x i32] zeroinitializer, align 16
@_ZSt3cin = external dso_local global %"class.std::basic_istream", align 8
@_ZSt4cout = external dso_local global %"class.std::basic_ostream", align 8
@llvm.global_ctors = appending global [1 x { i32, void ()*, i8* }] [{ i32, void ()*, i8* } { i32 65535, void ()* @_GLOBAL__sub_I_1199.cpp, i8* null }]

; Function Attrs: noinline uwtable
define internal void @__cxx_global_var_init() #0 section ".text.startup" {
  call void @_ZNSt8ios_base4InitC1Ev(%"class.std::ios_base::Init"* @_ZStL8__ioinit)
  %1 = call i32 @__cxa_atexit(void (i8*)* bitcast (void (%"class.std::ios_base::Init"*)* @_ZNSt8ios_base4InitD1Ev to void (i8*)*), i8* getelementptr inbounds (%"class.std::ios_base::Init", %"class.std::ios_base::Init"* @_ZStL8__ioinit, i32 0, i32 0), i8* @__dso_handle) #3
  ret void
}

declare dso_local void @_ZNSt8ios_base4InitC1Ev(%"class.std::ios_base::Init"*) unnamed_addr #1

; Function Attrs: nounwind
declare dso_local void @_ZNSt8ios_base4InitD1Ev(%"class.std::ios_base::Init"*) unnamed_addr #2

; Function Attrs: nounwind
declare dso_local i32 @__cxa_atexit(void (i8*)*, i8*, i8*) #3

; Function Attrs: noinline uwtable
define dso_local void @_Z5counti(i32 %0) #0 {
  %2 = alloca i32, align 4
  %3 = alloca i32, align 4
  %4 = alloca i32, align 4
  store i32 %0, i32* %2, align 4
  %5 = load i32, i32* %2, align 4
  %6 = icmp eq i32 %5, 0
  br i1 %6, label %7, label %8

7:                                                ; preds = %1
  br label %53

8:                                                ; preds = %1
  store i32 1000, i32* %3, align 4
  br label %9

9:                                                ; preds = %21, %8
  %10 = load i32, i32* %3, align 4
  %11 = icmp sgt i32 %10, 0
  br i1 %11, label %12, label %24

12:                                               ; preds = %9
  %13 = load i32, i32* %3, align 4
  %14 = sext i32 %13 to i64
  %15 = getelementptr inbounds [1001 x i32], [1001 x i32]* @a, i64 0, i64 %14
  %16 = load i32, i32* %15, align 4
  %17 = mul nsw i32 %16, 2
  %18 = load i32, i32* %3, align 4
  %19 = sext i32 %18 to i64
  %20 = getelementptr inbounds [1001 x i32], [1001 x i32]* @a, i64 0, i64 %19
  store i32 %17, i32* %20, align 4
  br label %21

21:                                               ; preds = %12
  %22 = load i32, i32* %3, align 4
  %23 = add nsw i32 %22, -1
  store i32 %23, i32* %3, align 4
  br label %9

24:                                               ; preds = %9
  store i32 1000, i32* %4, align 4
  br label %25

25:                                               ; preds = %47, %24
  %26 = load i32, i32* %4, align 4
  %27 = icmp sgt i32 %26, 0
  br i1 %27, label %28, label %50

28:                                               ; preds = %25
  %29 = load i32, i32* %4, align 4
  %30 = sext i32 %29 to i64
  %31 = getelementptr inbounds [1001 x i32], [1001 x i32]* @a, i64 0, i64 %30
  %32 = load i32, i32* %31, align 4
  %33 = icmp sge i32 %32, 10
  br i1 %33, label %34, label %46

34:                                               ; preds = %28
  %35 = load i32, i32* %4, align 4
  %36 = sext i32 %35 to i64
  %37 = getelementptr inbounds [1001 x i32], [1001 x i32]* @a, i64 0, i64 %36
  %38 = load i32, i32* %37, align 4
  %39 = sub nsw i32 %38, 10
  store i32 %39, i32* %37, align 4
  %40 = load i32, i32* %4, align 4
  %41 = sub nsw i32 %40, 1
  %42 = sext i32 %41 to i64
  %43 = getelementptr inbounds [1001 x i32], [1001 x i32]* @a, i64 0, i64 %42
  %44 = load i32, i32* %43, align 4
  %45 = add nsw i32 %44, 1
  store i32 %45, i32* %43, align 4
  br label %46

46:                                               ; preds = %34, %28
  br label %47

47:                                               ; preds = %46
  %48 = load i32, i32* %4, align 4
  %49 = add nsw i32 %48, -1
  store i32 %49, i32* %4, align 4
  br label %25

50:                                               ; preds = %25
  %51 = load i32, i32* %2, align 4
  %52 = sub nsw i32 %51, 1
  call void @_Z5counti(i32 %52)
  br label %53

53:                                               ; preds = %50, %7
  ret void
}

; Function Attrs: noinline norecurse uwtable
define dso_local i32 @main() #4 {
  %1 = alloca i32, align 4
  %2 = alloca i32, align 4
  %3 = alloca i32, align 4
  store i32 0, i32* %1, align 4
  %4 = call dereferenceable(280) %"class.std::basic_istream"* @_ZNSirsERi(%"class.std::basic_istream"* @_ZSt3cin, i32* dereferenceable(4) @n)
  store i32 1, i32* getelementptr inbounds ([1001 x i32], [1001 x i32]* @a, i64 0, i64 1000), align 16
  %5 = load i32, i32* @n, align 4
  call void @_Z5counti(i32 %5)
  store i32 0, i32* %2, align 4
  br label %6

6:                                                ; preds = %31, %0
  %7 = load i32, i32* %2, align 4
  %8 = icmp slt i32 %7, 1001
  br i1 %8, label %9, label %34

9:                                                ; preds = %6
  %10 = load i32, i32* %2, align 4
  %11 = sext i32 %10 to i64
  %12 = getelementptr inbounds [1001 x i32], [1001 x i32]* @a, i64 0, i64 %11
  %13 = load i32, i32* %12, align 4
  %14 = icmp ne i32 %13, 0
  br i1 %14, label %15, label %30

15:                                               ; preds = %9
  %16 = load i32, i32* %2, align 4
  store i32 %16, i32* %3, align 4
  br label %17

17:                                               ; preds = %26, %15
  %18 = load i32, i32* %3, align 4
  %19 = icmp slt i32 %18, 1001
  br i1 %19, label %20, label %29

20:                                               ; preds = %17
  %21 = load i32, i32* %3, align 4
  %22 = sext i32 %21 to i64
  %23 = getelementptr inbounds [1001 x i32], [1001 x i32]* @a, i64 0, i64 %22
  %24 = load i32, i32* %23, align 4
  %25 = call dereferenceable(272) %"class.std::basic_ostream"* @_ZNSolsEi(%"class.std::basic_ostream"* @_ZSt4cout, i32 %24)
  br label %26

26:                                               ; preds = %20
  %27 = load i32, i32* %3, align 4
  %28 = add nsw i32 %27, 1
  store i32 %28, i32* %3, align 4
  br label %17

29:                                               ; preds = %17
  br label %34

30:                                               ; preds = %9
  br label %31

31:                                               ; preds = %30
  %32 = load i32, i32* %2, align 4
  %33 = add nsw i32 %32, 1
  store i32 %33, i32* %2, align 4
  br label %6

34:                                               ; preds = %29, %6
  ret i32 0
}

declare dso_local dereferenceable(280) %"class.std::basic_istream"* @_ZNSirsERi(%"class.std::basic_istream"*, i32* dereferenceable(4)) #1

declare dso_local dereferenceable(272) %"class.std::basic_ostream"* @_ZNSolsEi(%"class.std::basic_ostream"*, i32) #1

; Function Attrs: noinline uwtable
define internal void @_GLOBAL__sub_I_1199.cpp() #0 section ".text.startup" {
  call void @__cxx_global_var_init()
  ret void
}


!llvm.module.flags = !{!0}
!llvm.ident = !{!1}

!0 = !{i32 1, !"wchar_size", i32 4}
!1 = !{!"clang version 10.0.0-4ubuntu1 "}
